; Function Attrs: nounwind uwtable
define void @lv_buttonmatrix_set_one_checked(ptr noundef %0, i1 noundef zeroext %1) local_unnamed_addr #0 {
  %3 = getelementptr inbounds nuw i8, ptr %0, i64 100
  %4 = zext i1 %1 to i8
  %5 = load i8, ptr %3, align 4
  %6 = and i8 %5, -2
  %7 = or disjoint i8 %6, %4
  store i8 %7, ptr %3, align 4
  tail call fastcc void @make_one_button_checked(ptr noundef %0, i32 noundef 0)
  ret void
}